target datalayout = "e-m:e-p270:32:32-p271:32:32-p272:64:64-i64:64-i128:128-f80:128-n8:16:32:64-S128"
target triple = "x86_64-pc-linux-gnu"

%struct.Expr = type { i32 }
%union.ListCell = type { ptr }
%struct.Node = type { i32 }
%struct.Param = type { %struct.Expr, i32, i32, i32, i32, i32, i32 }

; Function Attrs: inlinehint nounwind uwtable
define internal ptr @newNode(i64 noundef %0, i32 noundef %1) #2 {
  %3 = alloca i64, align 8
  %4 = alloca i32, align 4
  %5 = alloca ptr, align 8
  store i64 %0, ptr %3, align 8
  store i32 %1, ptr %4, align 4
  call void @llvm.lifetime.start.p0(i64 8, ptr %5) #7
  %6 = load i64, ptr %3, align 8
  %7 = call ptr @palloc0(i64 noundef %6)
  store ptr %7, ptr %5, align 8
  %8 = load i32, ptr %4, align 4
  %9 = load ptr, ptr %5, align 8
  %10 = getelementptr inbounds nuw %struct.Node, ptr %9, i32 0, i32 0
  store i32 %8, ptr %10, align 4
  %11 = load ptr, ptr %5, align 8
  call void @llvm.lifetime.end.p0(i64 8, ptr %5) #7
  ret ptr %11
}

; Function Attrs: nounwind uwtable
define internal ptr @make_agg_arg(i32 noundef %0, i32 noundef %1) #0 {
  %3 = alloca i32, align 4
  %4 = alloca i32, align 4
  %5 = alloca ptr, align 8
  store i32 %0, ptr %3, align 4
  store i32 %1, ptr %4, align 4
  call void @llvm.lifetime.start.p0(i64 8, ptr %5) #7
  %6 = call ptr @newNode(i64 noundef 28, i32 noundef 8)
  store ptr %6, ptr %5, align 8
  %7 = load ptr, ptr %5, align 8
  %8 = getelementptr inbounds nuw %struct.Param, ptr %7, i32 0, i32 1
  store i32 1, ptr %8, align 4
  %9 = load ptr, ptr %5, align 8
  %10 = getelementptr inbounds nuw %struct.Param, ptr %9, i32 0, i32 2
  store i32 -1, ptr %10, align 4
  %11 = load i32, ptr %3, align 4
  %12 = load ptr, ptr %5, align 8
  %13 = getelementptr inbounds nuw %struct.Param, ptr %12, i32 0, i32 3
  store i32 %11, ptr %13, align 4
  %14 = load ptr, ptr %5, align 8
  %15 = getelementptr inbounds nuw %struct.Param, ptr %14, i32 0, i32 4
  store i32 -1, ptr %15, align 4
  %16 = load i32, ptr %4, align 4
  %17 = load ptr, ptr %5, align 8
  %18 = getelementptr inbounds nuw %struct.Param, ptr %17, i32 0, i32 5
  store i32 %16, ptr %18, align 4
  %19 = load ptr, ptr %5, align 8
  %20 = getelementptr inbounds nuw %struct.Param, ptr %19, i32 0, i32 6
  store i32 -1, ptr %20, align 4
  %21 = load ptr, ptr %5, align 8
  call void @llvm.lifetime.end.p0(i64 8, ptr %5) #7
  ret ptr %21
}

; Function Attrs: nounwind uwtable
define dso_local void @build_aggregate_finalfn_expr(ptr noundef %0, i32 noundef %1, i32 noundef %2, i32 noundef %3, i32 noundef %4, i32 noundef %5, ptr noundef %6) #0 {
  %8 = alloca ptr, align 8
  %9 = alloca i32, align 4
  %10 = alloca i32, align 4
  %11 = alloca i32, align 4
  %12 = alloca i32, align 4
  %13 = alloca i32, align 4
  %14 = alloca ptr, align 8
  %15 = alloca ptr, align 8
  %16 = alloca i32, align 4
  %17 = alloca %union.ListCell, align 8
  store ptr %0, ptr %8, align 8
  store i32 %1, ptr %9, align 4
  store i32 %2, ptr %10, align 4
  store i32 %3, ptr %11, align 4
  store i32 %4, ptr %12, align 4
  store i32 %5, ptr %13, align 4
  store ptr %6, ptr %14, align 8
  call void @llvm.lifetime.start.p0(i64 8, ptr %15) #7
  call void @llvm.lifetime.start.p0(i64 4, ptr %16) #7
  %18 = load i32, ptr %10, align 4
  %19 = load i32, ptr %12, align 4
  %20 = call ptr @make_agg_arg(i32 noundef %18, i32 noundef %19)
  store ptr %20, ptr %17, align 8
  %21 = getelementptr inbounds nuw %union.ListCell, ptr %17, i32 0, i32 0
  %22 = load ptr, ptr %21, align 8
  %23 = call ptr @list_make1_impl(i32 noundef 1, ptr %22)
  store ptr %23, ptr %15, align 8
  store i32 0, ptr %16, align 4
  br label %24

24:                                               ; preds = %39, %7
  %25 = load i32, ptr %16, align 4
  %26 = load i32, ptr %9, align 4
  %27 = sub i32 %26, 1
  %28 = icmp slt i32 %25, %27
  br i1 %28, label %29, label %42

29:                                               ; preds = %24
  %30 = load ptr, ptr %15, align 8
  %31 = load ptr, ptr %8, align 8
  %32 = load i32, ptr %16, align 4
  %33 = sext i32 %32 to i64
  %34 = getelementptr inbounds i32, ptr %31, i64 %33
  %35 = load i32, ptr %34, align 4
  %36 = load i32, ptr %12, align 4
  %37 = call ptr @make_agg_arg(i32 noundef %35, i32 noundef %36)
  %38 = call ptr @lappend(ptr noundef %30, ptr noundef %37)
  store ptr %38, ptr %15, align 8
  br label %39

39:                                               ; preds = %29
  %40 = load i32, ptr %16, align 4
  %41 = add i32 %40, 1
  store i32 %41, ptr %16, align 4
  br label %24, !llvm.loop !36

42:                                               ; preds = %24
  %43 = load i32, ptr %13, align 4
  %44 = load i32, ptr %11, align 4
  %45 = load ptr, ptr %15, align 8
  %46 = load i32, ptr %12, align 4
  %47 = call ptr @makeFuncExpr(i32 noundef %43, i32 noundef %44, ptr noundef %45, i32 noundef 0, i32 noundef %46, i32 noundef 0)
  %48 = load ptr, ptr %14, align 8
  store ptr %47, ptr %48, align 8
  call void @llvm.lifetime.end.p0(i64 4, ptr %16) #7
  call void @llvm.lifetime.end.p0(i64 8, ptr %15) #7
  ret void
}