; Function Attrs: nounwind uwtable
define dso_local void @build_aggregate_finalfn_expr(ptr noundef readonly captures(none) %0, i32 noundef %1, i32 noundef %2, i32 noundef %3, i32 noundef %4, i32 noundef %5, ptr noundef writeonly captures(none) %6) local_unnamed_addr #0 {
  %8 = tail call noundef ptr @palloc0(i64 noundef 28) #11
  store i32 8, ptr %8, align 4
  %9 = getelementptr inbounds nuw i8, ptr %8, i64 4
  store i32 1, ptr %9, align 4
  %10 = getelementptr inbounds nuw i8, ptr %8, i64 8
  store i32 -1, ptr %10, align 4
  %11 = getelementptr inbounds nuw i8, ptr %8, i64 12
  store i32 %2, ptr %11, align 4
  %12 = getelementptr inbounds nuw i8, ptr %8, i64 16
  store i32 -1, ptr %12, align 4
  %13 = getelementptr inbounds nuw i8, ptr %8, i64 20
  store i32 %4, ptr %13, align 4
  %14 = getelementptr inbounds nuw i8, ptr %8, i64 24
  store i32 -1, ptr %14, align 4
  %15 = tail call ptr @list_make1_impl(i32 noundef 1, ptr nonnull %8) #11
  %16 = add i32 %1, -1
  %17 = icmp sgt i32 %16, 0
  br i1 %17, label %.lr.ph.preheader, label %._crit_edge

.lr.ph.preheader:                                 ; preds = %7
  %wide.trip.count = zext nneg i32 %16 to i64
  br label %.lr.ph

.lr.ph:                                           ; preds = %.lr.ph.preheader, %.lr.ph
  %indvars.iv = phi i64 [ 0, %.lr.ph.preheader ], [ %indvars.iv.next, %.lr.ph ]
  %.015 = phi ptr [ %15, %.lr.ph.preheader ], [ %27, %.lr.ph ]
  %18 = getelementptr inbounds nuw i32, ptr %0, i64 %indvars.iv
  %19 = load i32, ptr %18, align 4
  %20 = tail call noundef ptr @palloc0(i64 noundef 28) #11
  store i32 8, ptr %20, align 4
  %21 = getelementptr inbounds nuw i8, ptr %20, i64 4
  store i32 1, ptr %21, align 4
  %22 = getelementptr inbounds nuw i8, ptr %20, i64 8
  store i32 -1, ptr %22, align 4
  %23 = getelementptr inbounds nuw i8, ptr %20, i64 12
  store i32 %19, ptr %23, align 4
  %24 = getelementptr inbounds nuw i8, ptr %20, i64 16
  store i32 -1, ptr %24, align 4
  %25 = getelementptr inbounds nuw i8, ptr %20, i64 20
  store i32 %4, ptr %25, align 4
  %26 = getelementptr inbounds nuw i8, ptr %20, i64 24
  store i32 -1, ptr %26, align 4
  %27 = tail call ptr @lappend(ptr noundef %.015, ptr noundef nonnull %20) #11
  %indvars.iv.next = add nuw nsw i64 %indvars.iv, 1
  %exitcond.not = icmp eq i64 %indvars.iv.next, %wide.trip.count
  br i1 %exitcond.not, label %._crit_edge, label %.lr.ph, !llvm.loop !19

._crit_edge:                                      ; preds = %.lr.ph, %7
  %.0.lcssa = phi ptr [ %15, %7 ], [ %27, %.lr.ph ]
  %28 = tail call ptr @makeFuncExpr(i32 noundef %5, i32 noundef %3, ptr noundef %.0.lcssa, i32 noundef 0, i32 noundef %4, i32 noundef 0) #11
  store ptr %28, ptr %6, align 8
  ret void
}